#include <math.h>
#include <stdio.h>
#include <stdlib.h>
#include <string.h>

main()
{
      int c['z']={0},flag=0;
      int n; 
      int i,count,j; 
      char str[100001];
      scanf("%d",&n);
      
      for (count=0;count<n;count++)
      { 
      
      for (j='a';j<='z';j++)c[j]=0; 
      scanf("%s",str);
      i=0;
      while(str[i]!='\0')
      {
                 c[str[i]]++;
                 i++; 
      } 
      i=0; 
      flag=0;
      while(str[i]!='\0')
      {
                 if (c[str[i]]==1){printf("%c\n",str[i]);flag=1;break;} 
                 i++; 
      } 
      if(flag!=1)printf("no\n"); 
      } 
} 
