; ModuleID = 'source-C-CXX/36/1486.c'
source_filename = "source-C-CXX/36/1486.c"
target datalayout = "e-m:e-p270:32:32-p271:32:32-p272:64:64-i64:64-f80:128-n8:16:32:64-S128"
target triple = "x86_64-pc-linux-gnu"

@.str = private unnamed_addr constant [3 x i8] c"%d\00", align 1
@.str.1 = private unnamed_addr constant [3 x i8] c"%s\00", align 1
@.str.2 = private unnamed_addr constant [4 x i8] c"%c\0A\00", align 1
@str = private unnamed_addr constant [3 x i8] c"no\00", align 1

; Function Attrs: nofree nounwind sspstrong uwtable
define dso_local i32 @main() local_unnamed_addr #0 {
  %1 = alloca [122 x i32], align 16
  %2 = alloca i32, align 4
  %3 = alloca [100001 x i8], align 16
  %4 = bitcast [122 x i32]* %1 to i8*
  call void @llvm.lifetime.start.p0i8(i64 488, i8* nonnull %4) #5
  call void @llvm.memset.p0i8.i64(i8* noundef nonnull align 16 dereferenceable(488) %4, i8 0, i64 400, i1 false)
  %5 = bitcast i32* %2 to i8*
  call void @llvm.lifetime.start.p0i8(i64 4, i8* nonnull %5) #5
  %6 = getelementptr inbounds [100001 x i8], [100001 x i8]* %3, i64 0, i64 0
  call void @llvm.lifetime.start.p0i8(i64 100001, i8* nonnull %6) #5
  %7 = call i32 (i8*, ...) @__isoc99_scanf(i8* getelementptr inbounds ([3 x i8], [3 x i8]* @.str, i64 0, i64 0), i32* nonnull %2)
  %8 = load i32, i32* %2, align 4, !tbaa !5
  %9 = icmp sgt i32 %8, 0
  br i1 %9, label %10, label %51

10:                                               ; preds = %0
  %11 = getelementptr inbounds [122 x i32], [122 x i32]* %1, i64 0, i64 97
  %12 = bitcast i32* %11 to i8*
  br label %13

13:                                               ; preds = %10, %47
  %14 = phi i32 [ %48, %47 ], [ 0, %10 ]
  call void @llvm.memset.p0i8.i64(i8* noundef nonnull align 4 dereferenceable(104) %12, i8 0, i64 104, i1 false)
  %15 = call i32 (i8*, ...) @__isoc99_scanf(i8* getelementptr inbounds ([3 x i8], [3 x i8]* @.str.1, i64 0, i64 0), i8* nonnull %6)
  %16 = load i8, i8* %6, align 16, !tbaa !9
  %17 = icmp eq i8 %16, 0
  br i1 %17, label %45, label %19

18:                                               ; preds = %19
  br i1 %17, label %45, label %34

19:                                               ; preds = %13, %19
  %20 = phi i64 [ %26, %19 ], [ 0, %13 ]
  %21 = phi i8 [ %28, %19 ], [ %16, %13 ]
  %22 = sext i8 %21 to i64
  %23 = getelementptr inbounds [122 x i32], [122 x i32]* %1, i64 0, i64 %22
  %24 = load i32, i32* %23, align 4, !tbaa !5
  %25 = add nsw i32 %24, 1
  store i32 %25, i32* %23, align 4, !tbaa !5
  %26 = add nuw nsw i64 %20, 1
  %27 = getelementptr inbounds [100001 x i8], [100001 x i8]* %3, i64 0, i64 %26
  %28 = load i8, i8* %27, align 1, !tbaa !9
  %29 = icmp eq i8 %28, 0
  br i1 %29, label %18, label %19, !llvm.loop !10

30:                                               ; preds = %34
  %31 = getelementptr inbounds [100001 x i8], [100001 x i8]* %3, i64 0, i64 %41
  %32 = load i8, i8* %31, align 1, !tbaa !9
  %33 = icmp eq i8 %32, 0
  br i1 %33, label %45, label %34, !llvm.loop !12

34:                                               ; preds = %18, %30
  %35 = phi i64 [ %41, %30 ], [ 0, %18 ]
  %36 = phi i8 [ %32, %30 ], [ %16, %18 ]
  %37 = sext i8 %36 to i64
  %38 = getelementptr inbounds [122 x i32], [122 x i32]* %1, i64 0, i64 %37
  %39 = load i32, i32* %38, align 4, !tbaa !5
  %40 = icmp eq i32 %39, 1
  %41 = add nuw i64 %35, 1
  br i1 %40, label %42, label %30

42:                                               ; preds = %34
  %43 = sext i8 %36 to i32
  %44 = call i32 (i8*, ...) @printf(i8* nonnull dereferenceable(1) getelementptr inbounds ([4 x i8], [4 x i8]* @.str.2, i64 0, i64 0), i32 %43)
  br label %47

45:                                               ; preds = %30, %13, %18
  %46 = call i32 @puts(i8* nonnull dereferenceable(1) getelementptr inbounds ([3 x i8], [3 x i8]* @str, i64 0, i64 0))
  br label %47

47:                                               ; preds = %42, %45
  %48 = add nuw nsw i32 %14, 1
  %49 = load i32, i32* %2, align 4, !tbaa !5
  %50 = icmp slt i32 %48, %49
  br i1 %50, label %13, label %51, !llvm.loop !13

51:                                               ; preds = %47, %0
  call void @llvm.lifetime.end.p0i8(i64 100001, i8* nonnull %6) #5
  call void @llvm.lifetime.end.p0i8(i64 4, i8* nonnull %5) #5
  call void @llvm.lifetime.end.p0i8(i64 488, i8* nonnull %4) #5
  ret i32 0
}

; Function Attrs: argmemonly mustprogress nofree nosync nounwind willreturn
declare void @llvm.lifetime.start.p0i8(i64 immarg, i8* nocapture) #1

; Function Attrs: argmemonly mustprogress nofree nounwind willreturn writeonly
declare void @llvm.memset.p0i8.i64(i8* nocapture writeonly, i8, i64, i1 immarg) #2

; Function Attrs: nofree nounwind
declare noundef i32 @__isoc99_scanf(i8* nocapture noundef readonly, ...) local_unnamed_addr #3

; Function Attrs: nofree nounwind
declare noundef i32 @printf(i8* nocapture noundef readonly, ...) local_unnamed_addr #3

; Function Attrs: argmemonly mustprogress nofree nosync nounwind willreturn
declare void @llvm.lifetime.end.p0i8(i64 immarg, i8* nocapture) #1

; Function Attrs: nofree nounwind
declare noundef i32 @puts(i8* nocapture noundef readonly) local_unnamed_addr #4


!llvm.module.flags = !{!0, !1, !2, !3}
!llvm.ident = !{!4}

!0 = !{i32 1, !"wchar_size", i32 4}
!1 = !{i32 7, !"PIC Level", i32 2}
!2 = !{i32 7, !"PIE Level", i32 2}
!3 = !{i32 7, !"uwtable", i32 1}
!4 = !{!"clang version 13.0.0"}
!5 = !{!6, !6, i64 0}
!6 = !{!"int", !7, i64 0}
!7 = !{!"omnipotent char", !8, i64 0}
!8 = !{!"Simple C/C++ TBAA"}
!9 = !{!7, !7, i64 0}
!10 = distinct !{!10, !11}
!11 = !{!"llvm.loop.mustprogress"}
!12 = distinct !{!12, !11}
!13 = distinct !{!13, !11}
